target datalayout = "e-m:e-p270:32:32-p271:32:32-p272:64:64-i64:64-i128:128-f80:128-n8:16:32:64-S128"
target triple = "x86_64-unknown-linux-gnu"

%struct.FlashPartInfo = type { ptr, [6 x i8], i8, i32, i32, i32, i16, i8, ptr }
%struct.Flash = type { %struct.SSIPeripheral, ptr, ptr, i32, i32, i8, [16 x i8], i32, i32, i8, i8, i8, i32, i32, i32, i32, i8, i8, i8, i8, i8, i8, i8, i8, i8, i8, i8, i8, i8, i8, i8, i8, i8, i8, i8, i8, i8, i64, ptr }
%struct.SSIPeripheral = type { %struct.DeviceState, ptr, i8, i8 }
%struct.DeviceState = type { %struct.Object, ptr, ptr, i8, i8, i64, ptr, i32, i8, ptr, %struct.NamedGPIOListHead, %struct.NamedClockListHead, %struct.BusStateHead, i32, i32, i32, %struct.ResettableState, ptr, %struct.MemReentrancyGuard }
%struct.Object = type { ptr, ptr, ptr, i32, ptr }
%struct.NamedGPIOListHead = type { ptr }
%struct.NamedClockListHead = type { ptr }
%struct.BusStateHead = type { ptr }
%struct.ResettableState = type { i32, i8, i8 }
%struct.MemReentrancyGuard = type { i8 }

; Function Attrs: nounwind sspstrong uwtable
define internal i32 @get_man(ptr noundef %s) #0 {
entry:
  %retval = alloca i32, align 4
  %s.addr = alloca ptr, align 8
  store ptr %s, ptr %s.addr, align 8
  %0 = load ptr, ptr %s.addr, align 8
  %pi = getelementptr inbounds %struct.Flash, ptr %0, i32 0, i32 38
  %1 = load ptr, ptr %pi, align 8
  %id = getelementptr inbounds %struct.FlashPartInfo, ptr %1, i32 0, i32 1
  %arrayidx = getelementptr [6 x i8], ptr %id, i64 0, i64 0
  %2 = load i8, ptr %arrayidx, align 8
  %conv = zext i8 %2 to i32
  switch i32 %conv, label %sw.default [
    i32 32, label %sw.bb
    i32 239, label %sw.bb1
    i32 1, label %sw.bb2
    i32 194, label %sw.bb3
    i32 191, label %sw.bb4
    i32 157, label %sw.bb5
  ]

sw.bb:                                            ; preds = %entry
  store i32 2, ptr %retval, align 4
  br label %return

sw.bb1:                                           ; preds = %entry
  store i32 3, ptr %retval, align 4
  br label %return

sw.bb2:                                           ; preds = %entry
  store i32 0, ptr %retval, align 4
  br label %return

sw.bb3:                                           ; preds = %entry
  store i32 1, ptr %retval, align 4
  br label %return

sw.bb4:                                           ; preds = %entry
  store i32 4, ptr %retval, align 4
  br label %return

sw.bb5:                                           ; preds = %entry
  store i32 5, ptr %retval, align 4
  br label %return

sw.default:                                       ; preds = %entry
  store i32 6, ptr %retval, align 4
  br label %return

return:                                           ; preds = %sw.default, %sw.bb5, %sw.bb4, %sw.bb3, %sw.bb2, %sw.bb1, %sw.bb
  %3 = load i32, ptr %retval, align 4
  ret i32 %3
}