; Function Attrs: mustprogress nofree norecurse nosync nounwind sspstrong willreturn memory(none) uwtable
define internal fastcc range(i32 0, 7) i32 @get_man(i8 %s.280.val.8.val) unnamed_addr #5 {
entry:
  switch i8 %s.280.val.8.val, label %sw.default [
    i8 32, label %return
    i8 -17, label %sw.bb1
    i8 1, label %sw.bb2
    i8 -62, label %sw.bb3
    i8 -65, label %sw.bb4
    i8 -99, label %sw.bb5
  ]

sw.bb1:                                           ; preds = %entry
  br label %return

sw.bb2:                                           ; preds = %entry
  br label %return

sw.bb3:                                           ; preds = %entry
  br label %return

sw.bb4:                                           ; preds = %entry
  br label %return

sw.bb5:                                           ; preds = %entry
  br label %return

sw.default:                                       ; preds = %entry
  br label %return

return:                                           ; preds = %entry, %sw.default, %sw.bb5, %sw.bb4, %sw.bb3, %sw.bb2, %sw.bb1
  %retval.0 = phi i32 [ 6, %sw.default ], [ 5, %sw.bb5 ], [ 4, %sw.bb4 ], [ 1, %sw.bb3 ], [ 0, %sw.bb2 ], [ 3, %sw.bb1 ], [ 2, %entry ]
  ret i32 %retval.0
}